; Function Attrs: mustprogress uwtable
define noundef zeroext i1 @_ZN5sim_t10mmio_storeEmmPKh(ptr noundef nonnull align 8 dereferenceable(2888) %0, i64 noundef %1, i64 noundef %2, ptr noundef %3) unnamed_addr #6 align 2 {
  %5 = add i64 %2, %1
  %6 = icmp uge i64 %5, %1
  %7 = add i64 %5, -1
  %8 = icmp ult i64 %7, 72057594037927936
  %or.cond = and i1 %6, %8
  br i1 %or.cond, label %9, label %12

9:                                                ; preds = %4
  %10 = getelementptr inbounds i8, ptr %0, i64 1080
  %11 = tail call noundef zeroext i1 @_ZN5bus_t5storeEmmPKh(ptr noundef nonnull align 8 dereferenceable(56) %10, i64 noundef %1, i64 noundef %2, ptr noundef %3)
  br label %12

12:                                               ; preds = %4, %9
  %.0 = phi i1 [ %11, %9 ], [ false, %4 ]
  ret i1 %.0
}